target datalayout = "e-m:e-p270:32:32-p271:32:32-p272:64:64-i64:64-i128:128-f80:128-n8:16:32:64-S128"
target triple = "x86_64-pc-linux-gnu"

%struct.hm_fragment_st = type { %struct.hm_header_st, ptr, ptr }
%struct.hm_header_st = type { i8, i64, i16, i64, i64, i32, %struct.dtls1_retransmit_state }
%struct.dtls1_retransmit_state = type { ptr, ptr }
%struct.ssl_connection_st = type { %struct.ssl_st, ptr, i32, ptr, ptr, ptr, i32, ptr, i32, i32, i32, i32, %struct.OSSL_TIME, %struct.OSSL_TIME, %struct.ossl_statem_st, i32, ptr, ptr, i64, i64, i64, %struct.ossl_quic_tls_callbacks_st, ptr, ptr, %struct.anon, ptr, ptr, ptr, i32, ptr, %struct.ssl_dane_st, ptr, ptr, ptr, ptr, i32, [64 x i8], [64 x i8], [64 x i8], [64 x i8], [64 x i8], [64 x i8], [64 x i8], [64 x i8], [64 x i8], [64 x i8], [64 x i8], [64 x i8], ptr, [64 x i8], i64, i32, i64, [32 x i8], ptr, ptr, ptr, i64, ptr, [32 x i8], i64, i32, ptr, ptr, i32, i32, ptr, ptr, ptr, ptr, ptr, i64, ptr, ptr, i64, i32, i32, i32, i64, i32, i32, i64, i64, i64, %struct.anon.1, ptr, i32, ptr, ptr, ptr, i32, ptr, ptr, ptr, i32, i32, i32, i32, ptr, i64, i32, ptr, %struct.srp_ctx_st, ptr, %struct.record_layer_st, ptr, ptr, ptr, ptr, i64, i32, i32, i32, i64, i64, i64, ptr, ptr, ptr, ptr, ptr, i64, ptr, i64, ptr, i64 }
%struct.ssl_st = type { i32, ptr, ptr, ptr, %struct.CRYPTO_REF_COUNT, ptr, %struct.crypto_ex_data_st }
%struct.CRYPTO_REF_COUNT = type { i32 }
%struct.crypto_ex_data_st = type { ptr, ptr }
%struct.OSSL_TIME = type { i64 }
%struct.ossl_statem_st = type { i32, i32, i32, i32, i32, i32, i32, i32, i32, i32, i32, i32, i32, ptr, ptr, ptr, i8 }
%struct.ossl_quic_tls_callbacks_st = type { ptr, ptr, ptr, ptr, ptr, ptr }
%struct.anon = type { i64, [32 x i8], [32 x i8], ptr, ptr, i32, i32, i32, i32, [2 x i8], i32, i32, i32, i32, %struct.anon.0, [64 x i8], i64, [64 x i8], i64, i32, i32, ptr, i64, ptr, i64, i32, i8, i8, i16, ptr, i16 }
%struct.anon.0 = type { [128 x i8], i64, [128 x i8], i64, i64, i32, ptr, ptr, [4 x ptr], [4 x i16], i64, i32, ptr, i64, ptr, i64, ptr, ptr, ptr, i32, i64, ptr, i32, ptr, i64, ptr, i64, ptr, i64, ptr, ptr, ptr, ptr, i64, i64, ptr, ptr, i32, i32, i32, i32 }
%struct.ssl_dane_st = type { ptr, ptr, ptr, ptr, ptr, i32, i32, i32, i64 }
%struct.anon.1 = type { [29 x i8], ptr, ptr, ptr, i32, ptr, i16, i32, %struct.anon.2, i32, i32, i64, ptr, i64, ptr, i64, ptr, i64, ptr, i64, ptr, i64, ptr, ptr, ptr, ptr, ptr, ptr, ptr, i64, ptr, i64, i32, i32, i32, i32, ptr, i64, i32, i8, i32, [4 x i32], i32, i8, i8, i8, i8 }
%struct.anon.2 = type { ptr, ptr, ptr, i64 }
%struct.srp_ctx_st = type { ptr, ptr, ptr, ptr, ptr, ptr, ptr, ptr, ptr, ptr, ptr, ptr, ptr, ptr, i32, i64 }
%struct.record_layer_st = type { ptr, ptr, ptr, ptr, ptr, ptr, ptr, ptr, i64, i32, i64, [4 x i8], i64, i64, i8, ptr, i32, ptr, ptr, ptr, i64, i64, i64, i64, [32 x %struct.tls_record_st] }
%struct.tls_record_st = type { ptr, i32, i8, ptr, ptr, i64, i64, i16, [8 x i8] }
%struct.dtls1_state_st = type { [255 x i8], i64, i32, i16, i16, i16, ptr, ptr, i64, i64, %struct.hm_header_st, %struct.hm_header_st, i32, %struct.OSSL_TIME, i32, i32, ptr }
%struct.ossl_record_method_st = type { ptr, ptr, ptr, ptr, ptr, ptr, ptr, ptr, ptr, ptr, ptr, ptr, ptr, ptr, ptr, ptr, ptr, ptr, ptr, ptr, ptr, ptr, ptr, ptr, ptr }
%struct.buf_mem_st = type { i64, ptr, i64, i64 }
%struct.pitem_st = type { [8 x i8], ptr, ptr }

@.str = private unnamed_addr constant [36 x i8] c"../openssl/ssl/statem/statem_dtls.c\00", align 1
@__func__.dtls1_retransmit_message = private unnamed_addr constant [25 x i8] c"dtls1_retransmit_message\00", align 1

; Function Attrs: nounwind uwtable
define internal void @dtls1_set_message_header_int(ptr noundef %0, i8 noundef zeroext %1, i64 noundef %2, i16 noundef zeroext %3, i64 noundef %4, i64 noundef %5) #0 {
  %7 = alloca ptr, align 8
  %8 = alloca i8, align 1
  %9 = alloca i64, align 8
  %10 = alloca i16, align 2
  %11 = alloca i64, align 8
  %12 = alloca i64, align 8
  %13 = alloca ptr, align 8
  store ptr %0, ptr %7, align 8, !tbaa !19
  store i8 %1, ptr %8, align 1, !tbaa !21
  store i64 %2, ptr %9, align 8, !tbaa !91
  store i16 %3, ptr %10, align 2, !tbaa !132
  store i64 %4, ptr %11, align 8, !tbaa !91
  store i64 %5, ptr %12, align 8, !tbaa !91
  call void @llvm.lifetime.start.p0(i64 8, ptr %13) #6
  %14 = load ptr, ptr %7, align 8, !tbaa !19
  %15 = getelementptr inbounds nuw %struct.ssl_connection_st, ptr %14, i32 0, i32 25
  %16 = load ptr, ptr %15, align 8, !tbaa !80
  %17 = getelementptr inbounds nuw %struct.dtls1_state_st, ptr %16, i32 0, i32 10
  store ptr %17, ptr %13, align 8, !tbaa !100
  %18 = load i8, ptr %8, align 1, !tbaa !21
  %19 = load ptr, ptr %13, align 8, !tbaa !100
  %20 = getelementptr inbounds nuw %struct.hm_header_st, ptr %19, i32 0, i32 0
  store i8 %18, ptr %20, align 8, !tbaa !103
  %21 = load i64, ptr %9, align 8, !tbaa !91
  %22 = load ptr, ptr %13, align 8, !tbaa !100
  %23 = getelementptr inbounds nuw %struct.hm_header_st, ptr %22, i32 0, i32 1
  store i64 %21, ptr %23, align 8, !tbaa !104
  %24 = load i16, ptr %10, align 2, !tbaa !132
  %25 = load ptr, ptr %13, align 8, !tbaa !100
  %26 = getelementptr inbounds nuw %struct.hm_header_st, ptr %25, i32 0, i32 2
  store i16 %24, ptr %26, align 8, !tbaa !105
  %27 = load i64, ptr %11, align 8, !tbaa !91
  %28 = load ptr, ptr %13, align 8, !tbaa !100
  %29 = getelementptr inbounds nuw %struct.hm_header_st, ptr %28, i32 0, i32 3
  store i64 %27, ptr %29, align 8, !tbaa !110
  %30 = load i64, ptr %12, align 8, !tbaa !91
  %31 = load ptr, ptr %13, align 8, !tbaa !100
  %32 = getelementptr inbounds nuw %struct.hm_header_st, ptr %31, i32 0, i32 4
  store i64 %30, ptr %32, align 8, !tbaa !111
  call void @llvm.lifetime.end.p0(i64 8, ptr %13) #6
  ret void
}

; Function Attrs: nounwind uwtable
define i32 @dtls1_retransmit_message(ptr noundef %0, i16 noundef zeroext %1, ptr noundef %2) #0 {
  %4 = alloca i32, align 4
  %5 = alloca ptr, align 8
  %6 = alloca i16, align 2
  %7 = alloca ptr, align 8
  %8 = alloca i32, align 4
  %9 = alloca ptr, align 8
  %10 = alloca ptr, align 8
  %11 = alloca i64, align 8
  %12 = alloca [8 x i8], align 1
  %13 = alloca %struct.dtls1_retransmit_state, align 8
  %14 = alloca i32, align 4
  store ptr %0, ptr %5, align 8, !tbaa !19
  store i16 %1, ptr %6, align 2, !tbaa !132
  store ptr %2, ptr %7, align 8, !tbaa !112
  call void @llvm.lifetime.start.p0(i64 4, ptr %8) #6
  call void @llvm.lifetime.start.p0(i64 8, ptr %9) #6
  call void @llvm.lifetime.start.p0(i64 8, ptr %10) #6
  call void @llvm.lifetime.start.p0(i64 8, ptr %11) #6
  call void @llvm.lifetime.start.p0(i64 8, ptr %12) #6
  call void @llvm.lifetime.start.p0(i64 16, ptr %13) #6
  %15 = getelementptr inbounds [8 x i8], ptr %12, i64 0, i64 0
  call void @llvm.memset.p0.i64(ptr align 1 %15, i8 0, i64 8, i1 false)
  %16 = load i16, ptr %6, align 2, !tbaa !132
  %17 = zext i16 %16 to i32
  %18 = ashr i32 %17, 8
  %19 = trunc i32 %18 to i8
  %20 = getelementptr inbounds [8 x i8], ptr %12, i64 0, i64 6
  store i8 %19, ptr %20, align 1, !tbaa !21
  %21 = load i16, ptr %6, align 2, !tbaa !132
  %22 = trunc i16 %21 to i8
  %23 = getelementptr inbounds [8 x i8], ptr %12, i64 0, i64 7
  store i8 %22, ptr %23, align 1, !tbaa !21
  %24 = load ptr, ptr %5, align 8, !tbaa !19
  %25 = getelementptr inbounds nuw %struct.ssl_connection_st, ptr %24, i32 0, i32 25
  %26 = load ptr, ptr %25, align 8, !tbaa !80
  %27 = getelementptr inbounds nuw %struct.dtls1_state_st, ptr %26, i32 0, i32 7
  %28 = load ptr, ptr %27, align 8, !tbaa !133
  %29 = getelementptr inbounds [8 x i8], ptr %12, i64 0, i64 0
  %30 = call ptr @pqueue_find(ptr noundef %28, ptr noundef %29)
  store ptr %30, ptr %9, align 8, !tbaa !135
  %31 = load ptr, ptr %9, align 8, !tbaa !135
  %32 = icmp eq ptr %31, null
  br i1 %32, label %33, label %36

33:                                               ; preds = %3
  call void @ERR_new()
  call void @ERR_set_debug(ptr noundef @.str, i32 noundef 1199, ptr noundef @__func__.dtls1_retransmit_message)
  %34 = load ptr, ptr %5, align 8, !tbaa !19
  call void (ptr, i32, i32, ptr, ...) @ossl_statem_fatal(ptr noundef %34, i32 noundef 80, i32 noundef 786691, ptr noundef null)
  %35 = load ptr, ptr %7, align 8, !tbaa !112
  store i32 0, ptr %35, align 4, !tbaa !22
  store i32 0, ptr %4, align 4
  store i32 1, ptr %14, align 4
  br label %160

36:                                               ; preds = %3
  %37 = load ptr, ptr %7, align 8, !tbaa !112
  store i32 1, ptr %37, align 4, !tbaa !22
  %38 = load ptr, ptr %9, align 8, !tbaa !135
  %39 = getelementptr inbounds nuw %struct.pitem_st, ptr %38, i32 0, i32 1
  %40 = load ptr, ptr %39, align 8, !tbaa !137
  store ptr %40, ptr %10, align 8, !tbaa !3
  %41 = load ptr, ptr %10, align 8, !tbaa !3
  %42 = getelementptr inbounds nuw %struct.hm_fragment_st, ptr %41, i32 0, i32 0
  %43 = getelementptr inbounds nuw %struct.hm_header_st, ptr %42, i32 0, i32 5
  %44 = load i32, ptr %43, align 8, !tbaa !140
  %45 = icmp ne i32 %44, 0
  br i1 %45, label %46, label %47

46:                                               ; preds = %36
  store i64 1, ptr %11, align 8, !tbaa !91
  br label %48

47:                                               ; preds = %36
  store i64 12, ptr %11, align 8, !tbaa !91
  br label %48

48:                                               ; preds = %47, %46
  %49 = load ptr, ptr %5, align 8, !tbaa !19
  %50 = getelementptr inbounds nuw %struct.ssl_connection_st, ptr %49, i32 0, i32 16
  %51 = load ptr, ptr %50, align 8, !tbaa !95
  %52 = getelementptr inbounds nuw %struct.buf_mem_st, ptr %51, i32 0, i32 1
  %53 = load ptr, ptr %52, align 8, !tbaa !96
  %54 = load ptr, ptr %10, align 8, !tbaa !3
  %55 = getelementptr inbounds nuw %struct.hm_fragment_st, ptr %54, i32 0, i32 1
  %56 = load ptr, ptr %55, align 8, !tbaa !8
  %57 = load ptr, ptr %10, align 8, !tbaa !3
  %58 = getelementptr inbounds nuw %struct.hm_fragment_st, ptr %57, i32 0, i32 0
  %59 = getelementptr inbounds nuw %struct.hm_header_st, ptr %58, i32 0, i32 1
  %60 = load i64, ptr %59, align 8, !tbaa !142
  %61 = load i64, ptr %11, align 8, !tbaa !91
  %62 = add i64 %60, %61
  call void @llvm.memcpy.p0.p0.i64(ptr align 1 %53, ptr align 1 %56, i64 %62, i1 false)
  %63 = load ptr, ptr %10, align 8, !tbaa !3
  %64 = getelementptr inbounds nuw %struct.hm_fragment_st, ptr %63, i32 0, i32 0
  %65 = getelementptr inbounds nuw %struct.hm_header_st, ptr %64, i32 0, i32 1
  %66 = load i64, ptr %65, align 8, !tbaa !142
  %67 = load i64, ptr %11, align 8, !tbaa !91
  %68 = add i64 %66, %67
  %69 = load ptr, ptr %5, align 8, !tbaa !19
  %70 = getelementptr inbounds nuw %struct.ssl_connection_st, ptr %69, i32 0, i32 18
  store i64 %68, ptr %70, align 8, !tbaa !85
  %71 = load ptr, ptr %5, align 8, !tbaa !19
  %72 = load ptr, ptr %10, align 8, !tbaa !3
  %73 = getelementptr inbounds nuw %struct.hm_fragment_st, ptr %72, i32 0, i32 0
  %74 = getelementptr inbounds nuw %struct.hm_header_st, ptr %73, i32 0, i32 0
  %75 = load i8, ptr %74, align 8, !tbaa !143
  %76 = load ptr, ptr %10, align 8, !tbaa !3
  %77 = getelementptr inbounds nuw %struct.hm_fragment_st, ptr %76, i32 0, i32 0
  %78 = getelementptr inbounds nuw %struct.hm_header_st, ptr %77, i32 0, i32 1
  %79 = load i64, ptr %78, align 8, !tbaa !142
  %80 = load ptr, ptr %10, align 8, !tbaa !3
  %81 = getelementptr inbounds nuw %struct.hm_fragment_st, ptr %80, i32 0, i32 0
  %82 = getelementptr inbounds nuw %struct.hm_header_st, ptr %81, i32 0, i32 2
  %83 = load i16, ptr %82, align 8, !tbaa !139
  %84 = load ptr, ptr %10, align 8, !tbaa !3
  %85 = getelementptr inbounds nuw %struct.hm_fragment_st, ptr %84, i32 0, i32 0
  %86 = getelementptr inbounds nuw %struct.hm_header_st, ptr %85, i32 0, i32 4
  %87 = load i64, ptr %86, align 8, !tbaa !144
  call void @dtls1_set_message_header_int(ptr noundef %71, i8 noundef zeroext %75, i64 noundef %79, i16 noundef zeroext %83, i64 noundef 0, i64 noundef %87)
  %88 = load ptr, ptr %5, align 8, !tbaa !19
  %89 = getelementptr inbounds nuw %struct.ssl_connection_st, ptr %88, i32 0, i32 104
  %90 = getelementptr inbounds nuw %struct.record_layer_st, ptr %89, i32 0, i32 4
  %91 = load ptr, ptr %90, align 8, !tbaa !87
  %92 = getelementptr inbounds nuw %struct.dtls1_retransmit_state, ptr %13, i32 0, i32 0
  store ptr %91, ptr %92, align 8, !tbaa !145
  %93 = load ptr, ptr %5, align 8, !tbaa !19
  %94 = getelementptr inbounds nuw %struct.ssl_connection_st, ptr %93, i32 0, i32 104
  %95 = getelementptr inbounds nuw %struct.record_layer_st, ptr %94, i32 0, i32 6
  %96 = load ptr, ptr %95, align 8, !tbaa !90
  %97 = getelementptr inbounds nuw %struct.dtls1_retransmit_state, ptr %13, i32 0, i32 1
  store ptr %96, ptr %97, align 8, !tbaa !146
  %98 = load ptr, ptr %5, align 8, !tbaa !19
  %99 = getelementptr inbounds nuw %struct.ssl_connection_st, ptr %98, i32 0, i32 25
  %100 = load ptr, ptr %99, align 8, !tbaa !80
  %101 = getelementptr inbounds nuw %struct.dtls1_state_st, ptr %100, i32 0, i32 15
  store i32 1, ptr %101, align 4, !tbaa !98
  %102 = load ptr, ptr %10, align 8, !tbaa !3
  %103 = getelementptr inbounds nuw %struct.hm_fragment_st, ptr %102, i32 0, i32 0
  %104 = getelementptr inbounds nuw %struct.hm_header_st, ptr %103, i32 0, i32 6
  %105 = getelementptr inbounds nuw %struct.dtls1_retransmit_state, ptr %104, i32 0, i32 0
  %106 = load ptr, ptr %105, align 8, !tbaa !147
  %107 = load ptr, ptr %5, align 8, !tbaa !19
  %108 = getelementptr inbounds nuw %struct.ssl_connection_st, ptr %107, i32 0, i32 104
  %109 = getelementptr inbounds nuw %struct.record_layer_st, ptr %108, i32 0, i32 4
  store ptr %106, ptr %109, align 8, !tbaa !87
  %110 = load ptr, ptr %10, align 8, !tbaa !3
  %111 = getelementptr inbounds nuw %struct.hm_fragment_st, ptr %110, i32 0, i32 0
  %112 = getelementptr inbounds nuw %struct.hm_header_st, ptr %111, i32 0, i32 6
  %113 = getelementptr inbounds nuw %struct.dtls1_retransmit_state, ptr %112, i32 0, i32 1
  %114 = load ptr, ptr %113, align 8, !tbaa !148
  %115 = load ptr, ptr %5, align 8, !tbaa !19
  %116 = getelementptr inbounds nuw %struct.ssl_connection_st, ptr %115, i32 0, i32 104
  %117 = getelementptr inbounds nuw %struct.record_layer_st, ptr %116, i32 0, i32 6
  store ptr %114, ptr %117, align 8, !tbaa !90
  %118 = load ptr, ptr %5, align 8, !tbaa !19
  %119 = getelementptr inbounds nuw %struct.ssl_connection_st, ptr %118, i32 0, i32 104
  %120 = getelementptr inbounds nuw %struct.record_layer_st, ptr %119, i32 0, i32 4
  %121 = load ptr, ptr %120, align 8, !tbaa !87
  %122 = getelementptr inbounds nuw %struct.ossl_record_method_st, ptr %121, i32 0, i32 11
  %123 = load ptr, ptr %122, align 8, !tbaa !149
  %124 = load ptr, ptr %5, align 8, !tbaa !19
  %125 = getelementptr inbounds nuw %struct.ssl_connection_st, ptr %124, i32 0, i32 104
  %126 = getelementptr inbounds nuw %struct.record_layer_st, ptr %125, i32 0, i32 6
  %127 = load ptr, ptr %126, align 8, !tbaa !90
  %128 = load ptr, ptr %5, align 8, !tbaa !19
  %129 = getelementptr inbounds nuw %struct.ssl_connection_st, ptr %128, i32 0, i32 4
  %130 = load ptr, ptr %129, align 8, !tbaa !94
  %131 = call i32 %123(ptr noundef %127, ptr noundef %130)
  %132 = load ptr, ptr %5, align 8, !tbaa !19
  %133 = load ptr, ptr %10, align 8, !tbaa !3
  %134 = getelementptr inbounds nuw %struct.hm_fragment_st, ptr %133, i32 0, i32 0
  %135 = getelementptr inbounds nuw %struct.hm_header_st, ptr %134, i32 0, i32 5
  %136 = load i32, ptr %135, align 8, !tbaa !140
  %137 = icmp ne i32 %136, 0
  %138 = select i1 %137, i32 20, i32 22
  %139 = trunc i32 %138 to i8
  %140 = call i32 @dtls1_do_write(ptr noundef %132, i8 noundef zeroext %139)
  store i32 %140, ptr %8, align 4, !tbaa !22
  %141 = getelementptr inbounds nuw %struct.dtls1_retransmit_state, ptr %13, i32 0, i32 0
  %142 = load ptr, ptr %141, align 8, !tbaa !145
  %143 = load ptr, ptr %5, align 8, !tbaa !19
  %144 = getelementptr inbounds nuw %struct.ssl_connection_st, ptr %143, i32 0, i32 104
  %145 = getelementptr inbounds nuw %struct.record_layer_st, ptr %144, i32 0, i32 4
  store ptr %142, ptr %145, align 8, !tbaa !87
  %146 = getelementptr inbounds nuw %struct.dtls1_retransmit_state, ptr %13, i32 0, i32 1
  %147 = load ptr, ptr %146, align 8, !tbaa !146
  %148 = load ptr, ptr %5, align 8, !tbaa !19
  %149 = getelementptr inbounds nuw %struct.ssl_connection_st, ptr %148, i32 0, i32 104
  %150 = getelementptr inbounds nuw %struct.record_layer_st, ptr %149, i32 0, i32 6
  store ptr %147, ptr %150, align 8, !tbaa !90
  %151 = load ptr, ptr %5, align 8, !tbaa !19
  %152 = getelementptr inbounds nuw %struct.ssl_connection_st, ptr %151, i32 0, i32 25
  %153 = load ptr, ptr %152, align 8, !tbaa !80
  %154 = getelementptr inbounds nuw %struct.dtls1_state_st, ptr %153, i32 0, i32 15
  store i32 0, ptr %154, align 4, !tbaa !98
  %155 = load ptr, ptr %5, align 8, !tbaa !19
  %156 = getelementptr inbounds nuw %struct.ssl_connection_st, ptr %155, i32 0, i32 4
  %157 = load ptr, ptr %156, align 8, !tbaa !94
  %158 = call i64 @BIO_ctrl(ptr noundef %157, i32 noundef 11, i64 noundef 0, ptr noundef null)
  %159 = load i32, ptr %8, align 4, !tbaa !22
  store i32 %159, ptr %4, align 4
  store i32 1, ptr %14, align 4
  br label %160

160:                                              ; preds = %48, %33
  call void @llvm.lifetime.end.p0(i64 16, ptr %13) #6
  call void @llvm.lifetime.end.p0(i64 8, ptr %12) #6
  call void @llvm.lifetime.end.p0(i64 8, ptr %11) #6
  call void @llvm.lifetime.end.p0(i64 8, ptr %10) #6
  call void @llvm.lifetime.end.p0(i64 8, ptr %9) #6
  call void @llvm.lifetime.end.p0(i64 4, ptr %8) #6
  %161 = load i32, ptr %4, align 4
  ret i32 %161
}