; Function Attrs: nounwind uwtable
define range(i32 -2147483648, 2) i32 @dtls1_retransmit_message(ptr noundef %0, i16 noundef zeroext %1, ptr noundef writeonly captures(none) initializes((0, 4)) %2) local_unnamed_addr #0 {
  %4 = alloca [8 x i8], align 8
  call void @llvm.lifetime.start.p0(i64 8, ptr nonnull %4) #9
  store i64 0, ptr %4, align 8
  %5 = lshr i16 %1, 8
  %6 = trunc nuw i16 %5 to i8
  %7 = getelementptr inbounds nuw i8, ptr %4, i64 6
  store i8 %6, ptr %7, align 2, !tbaa !95
  %8 = trunc i16 %1 to i8
  %9 = getelementptr inbounds nuw i8, ptr %4, i64 7
  store i8 %8, ptr %9, align 1, !tbaa !95
  %10 = getelementptr inbounds nuw i8, ptr %0, i64 1264
  %11 = load ptr, ptr %10, align 8, !tbaa !74
  %12 = getelementptr inbounds nuw i8, ptr %11, i64 288
  %13 = load ptr, ptr %12, align 8, !tbaa !134
  %14 = call ptr @pqueue_find(ptr noundef %13, ptr noundef nonnull %4) #9
  %15 = icmp eq ptr %14, null
  br i1 %15, label %16, label %17

16:                                               ; preds = %3
  call void @ERR_new() #9
  call void @ERR_set_debug(ptr noundef nonnull @.str, i32 noundef 1199, ptr noundef nonnull @__func__.dtls1_retransmit_message) #9
  call void (ptr, i32, i32, ptr, ...) @ossl_statem_fatal(ptr noundef nonnull %0, i32 noundef 80, i32 noundef 786691, ptr noundef null) #9
  store i32 0, ptr %2, align 4, !tbaa !132
  br label %65

17:                                               ; preds = %3
  store i32 1, ptr %2, align 4, !tbaa !132
  %18 = getelementptr inbounds nuw i8, ptr %14, i64 8
  %19 = load ptr, ptr %18, align 8, !tbaa !108
  %20 = getelementptr inbounds nuw i8, ptr %19, i64 40
  %21 = load i32, ptr %20, align 8, !tbaa !135
  %.not = icmp eq i32 %21, 0
  %. = select i1 %.not, i64 12, i64 1
  %22 = getelementptr inbounds nuw i8, ptr %0, i64 248
  %23 = load ptr, ptr %22, align 8, !tbaa !91
  %24 = getelementptr inbounds nuw i8, ptr %23, i64 8
  %25 = load ptr, ptr %24, align 8, !tbaa !92
  %26 = getelementptr inbounds nuw i8, ptr %19, i64 64
  %27 = load ptr, ptr %26, align 8, !tbaa !3
  %28 = getelementptr inbounds nuw i8, ptr %19, i64 8
  %29 = load i64, ptr %28, align 8, !tbaa !137
  %30 = add i64 %29, %.
  call void @llvm.memcpy.p0.p0.i64(ptr align 1 %25, ptr align 1 %27, i64 %30, i1 false)
  %31 = load i64, ptr %28, align 8, !tbaa !137
  %32 = add i64 %31, %.
  %33 = getelementptr inbounds nuw i8, ptr %0, i64 264
  store i64 %32, ptr %33, align 8, !tbaa !79
  %34 = load i8, ptr %19, align 8, !tbaa !138
  %35 = getelementptr inbounds nuw i8, ptr %19, i64 16
  %36 = load i16, ptr %35, align 8, !tbaa !110
  %37 = getelementptr inbounds nuw i8, ptr %19, i64 32
  %38 = load i64, ptr %37, align 8, !tbaa !115
  %.val = load ptr, ptr %10, align 8, !tbaa !74
  %39 = getelementptr inbounds nuw i8, ptr %.val, i64 312
  store i8 %34, ptr %39, align 8, !tbaa !94
  %40 = getelementptr inbounds nuw i8, ptr %.val, i64 320
  store i64 %31, ptr %40, align 8, !tbaa !96
  %41 = getelementptr inbounds nuw i8, ptr %.val, i64 328
  store i16 %36, ptr %41, align 8, !tbaa !97
  %42 = getelementptr inbounds nuw i8, ptr %.val, i64 336
  store i64 0, ptr %42, align 8, !tbaa !89
  %43 = getelementptr inbounds nuw i8, ptr %.val, i64 344
  store i64 %38, ptr %43, align 8, !tbaa !90
  %44 = getelementptr inbounds nuw i8, ptr %0, i64 3192
  %45 = load ptr, ptr %44, align 8, !tbaa !82
  %46 = getelementptr inbounds nuw i8, ptr %0, i64 3208
  %47 = load ptr, ptr %46, align 8, !tbaa !85
  %48 = getelementptr inbounds nuw i8, ptr %.val, i64 460
  store i32 1, ptr %48, align 4, !tbaa !99
  %49 = getelementptr inbounds nuw i8, ptr %19, i64 48
  %50 = load ptr, ptr %49, align 8, !tbaa !139
  store ptr %50, ptr %44, align 8, !tbaa !82
  %51 = getelementptr inbounds nuw i8, ptr %19, i64 56
  %52 = load ptr, ptr %51, align 8, !tbaa !140
  store ptr %52, ptr %46, align 8, !tbaa !85
  %53 = getelementptr inbounds nuw i8, ptr %50, i64 88
  %54 = load ptr, ptr %53, align 8, !tbaa !141
  %55 = getelementptr inbounds nuw i8, ptr %0, i64 88
  %56 = load ptr, ptr %55, align 8, !tbaa !88
  %57 = call i32 %54(ptr noundef %52, ptr noundef %56) #9
  %58 = load i32, ptr %20, align 8, !tbaa !135
  %.not40 = icmp eq i32 %58, 0
  %59 = select i1 %.not40, i8 22, i8 20
  %60 = call i32 @dtls1_do_write(ptr noundef nonnull %0, i8 noundef zeroext %59)
  store ptr %45, ptr %44, align 8, !tbaa !82
  store ptr %47, ptr %46, align 8, !tbaa !85
  %61 = load ptr, ptr %10, align 8, !tbaa !74
  %62 = getelementptr inbounds nuw i8, ptr %61, i64 460
  store i32 0, ptr %62, align 4, !tbaa !99
  %63 = load ptr, ptr %55, align 8, !tbaa !88
  %64 = call i64 @BIO_ctrl(ptr noundef %63, i32 noundef 11, i64 noundef 0, ptr noundef null) #9
  br label %65

65:                                               ; preds = %17, %16
  %.0 = phi i32 [ 0, %16 ], [ %60, %17 ]
  call void @llvm.lifetime.end.p0(i64 8, ptr nonnull %4) #9
  ret i32 %.0
}